target datalayout = "e-m:e-p270:32:32-p271:32:32-p272:64:64-i64:64-i128:128-f80:128-n8:16:32:64-S128"
target triple = "x86_64-pc-linux-gnu"

%class.SafeOpFlags = type { i8, i8, i8, i32 }

; Function Attrs: mustprogress nounwind uwtable
define dso_local void @_ZN11SafeOpFlagsC2Ebbb10SafeOpSize(ptr noundef nonnull align 4 dereferenceable(8) %0, i1 noundef zeroext %1, i1 noundef zeroext %2, i1 noundef zeroext %3, i32 noundef %4) unnamed_addr #4 align 2 {
  %6 = alloca ptr, align 8
  %7 = alloca i8, align 1
  %8 = alloca i8, align 1
  %9 = alloca i8, align 1
  %10 = alloca i32, align 4
  store ptr %0, ptr %6, align 8, !tbaa !13
  %11 = zext i1 %1 to i8
  store i8 %11, ptr %7, align 1, !tbaa !15
  %12 = zext i1 %2 to i8
  store i8 %12, ptr %8, align 1, !tbaa !15
  %13 = zext i1 %3 to i8
  store i8 %13, ptr %9, align 1, !tbaa !15
  store i32 %4, ptr %10, align 4, !tbaa !17
  %14 = load ptr, ptr %6, align 8
  %15 = getelementptr inbounds nuw %class.SafeOpFlags, ptr %14, i32 0, i32 0
  %16 = load i8, ptr %7, align 1, !tbaa !15, !range !19, !noundef !20
  %17 = trunc i8 %16 to i1
  %18 = zext i1 %17 to i8
  store i8 %18, ptr %15, align 4, !tbaa !21
  %19 = getelementptr inbounds nuw %class.SafeOpFlags, ptr %14, i32 0, i32 1
  %20 = load i8, ptr %8, align 1, !tbaa !15, !range !19, !noundef !20
  %21 = trunc i8 %20 to i1
  %22 = zext i1 %21 to i8
  store i8 %22, ptr %19, align 1, !tbaa !23
  %23 = getelementptr inbounds nuw %class.SafeOpFlags, ptr %14, i32 0, i32 2
  %24 = load i8, ptr %9, align 1, !tbaa !15, !range !19, !noundef !20
  %25 = trunc i8 %24 to i1
  %26 = zext i1 %25 to i8
  store i8 %26, ptr %23, align 2, !tbaa !24
  %27 = getelementptr inbounds nuw %class.SafeOpFlags, ptr %14, i32 0, i32 3
  %28 = load i32, ptr %10, align 4, !tbaa !17
  store i32 %28, ptr %27, align 4, !tbaa !25
  ret void
}