; Function Attrs: mustprogress nofree norecurse nosync nounwind willreturn memory(argmem: write) uwtable
define dso_local void @_ZN11SafeOpFlagsC2Ebbb10SafeOpSize(ptr noundef nonnull writeonly align 4 captures(none) dereferenceable(8) initializes((0, 3), (4, 8)) %0, i1 noundef zeroext %1, i1 noundef zeroext %2, i1 noundef zeroext %3, i32 noundef %4) unnamed_addr #5 align 2 {
  %6 = zext i1 %1 to i8
  %7 = zext i1 %2 to i8
  %8 = zext i1 %3 to i8
  store i8 %6, ptr %0, align 4, !tbaa !21
  %9 = getelementptr inbounds nuw i8, ptr %0, i64 1
  store i8 %7, ptr %9, align 1, !tbaa !25
  %10 = getelementptr inbounds nuw i8, ptr %0, i64 2
  store i8 %8, ptr %10, align 2, !tbaa !26
  %11 = getelementptr inbounds nuw i8, ptr %0, i64 4
  store i32 %4, ptr %11, align 4, !tbaa !27
  ret void
}